; Function Attrs: nounwind uwtable
define internal range(i32 0, 2) i32 @test_PACKET_as_length_prefixed_1() #0 {
  %1 = tail call i32 @test_true(ptr noundef nonnull @.str.25, i32 noundef 433, ptr noundef nonnull @.str.29, i32 noundef 1) #6
  %.not = icmp eq i32 %1, 0
  br i1 %.not, label %12, label %2

2:                                                ; preds = %0
  %3 = tail call i32 @test_true(ptr noundef nonnull @.str.25, i32 noundef 434, ptr noundef nonnull @.str.117, i32 noundef 1) #6
  %.not6 = icmp eq i32 %3, 0
  br i1 %.not6, label %12, label %PACKET_as_length_prefixed_1.exit

PACKET_as_length_prefixed_1.exit:                 ; preds = %2
  %4 = tail call i32 @test_false(ptr noundef nonnull @.str.25, i32 noundef 435, ptr noundef nonnull @.str.118, i32 noundef 0) #6
  %.not7 = icmp eq i32 %4, 0
  br i1 %.not7, label %12, label %5

5:                                                ; preds = %PACKET_as_length_prefixed_1.exit
  %6 = tail call i32 @test_size_t_eq(ptr noundef nonnull @.str.25, i32 noundef 436, ptr noundef nonnull @.str.27, ptr noundef nonnull @.str.30, i64 noundef 255, i64 noundef 255) #6
  %.not8 = icmp eq i32 %6, 0
  br i1 %.not8, label %12, label %PACKET_as_length_prefixed_1.exit20

PACKET_as_length_prefixed_1.exit20:               ; preds = %5
  %7 = tail call i32 @test_true(ptr noundef nonnull @.str.25, i32 noundef 437, ptr noundef nonnull @.str.119, i32 noundef 1) #6
  %.not9 = icmp eq i32 %7, 0
  br i1 %.not9, label %12, label %8

8:                                                ; preds = %PACKET_as_length_prefixed_1.exit20
  %9 = tail call i32 @test_size_t_eq(ptr noundef nonnull @.str.25, i32 noundef 438, ptr noundef nonnull @.str.120, ptr noundef nonnull @.str.32, i64 noundef 0, i64 noundef 0) #6
  %.not10 = icmp eq i32 %9, 0
  br i1 %.not10, label %12, label %10

10:                                               ; preds = %8
  %11 = tail call i32 @test_size_t_eq(ptr noundef nonnull @.str.25, i32 noundef 439, ptr noundef nonnull @.str.68, ptr noundef nonnull @.str.84, i64 noundef 16, i64 noundef 16) #6
  %.not11 = icmp ne i32 %11, 0
  %spec.select = zext i1 %.not11 to i32
  br label %12

12:                                               ; preds = %10, %0, %2, %PACKET_as_length_prefixed_1.exit, %5, %PACKET_as_length_prefixed_1.exit20, %8
  %.05 = phi i32 [ 0, %8 ], [ 0, %PACKET_as_length_prefixed_1.exit20 ], [ 0, %5 ], [ 0, %PACKET_as_length_prefixed_1.exit ], [ 0, %2 ], [ 0, %0 ], [ %spec.select, %10 ]
  ret i32 %.05
}